; Function Attrs: mustprogress nofree norecurse nosync nounwind sspstrong willreturn memory(read, inaccessiblemem: none) uwtable
define internal range(i64 1, 8589934592) i64 @builtin_inline_class_303(ptr readnone captures(none) %0, i64 %1) #5 {
  %3 = load ptr, ptr @ruby_current_vm_ptr, align 8, !tbaa !125
  %4 = getelementptr inbounds nuw i8, ptr %3, i64 24
  %5 = load i32, ptr %4, align 8, !tbaa !41
  %6 = zext i32 %5 to i64
  %7 = shl nuw nsw i64 %6, 1
  %8 = or disjoint i64 %7, 1
  ret i64 %8
}